; Function Attrs: nounwind sspstrong uwtable
define internal noundef i32 @parse_iso23_cb(i64 noundef %0, i64 noundef %1) #0 {
  %3 = tail call i64 @rb_reg_nth_match(i32 noundef 1, i64 noundef %0) #13
  %4 = tail call i64 @rb_reg_nth_match(i32 noundef 2, i64 noundef %0) #13
  %5 = icmp eq i64 %3, 4
  br i1 %5, label %11, label %6

6:                                                ; preds = %2
  %.pr.i = load i64, ptr @parse_iso23_cb.rbimpl_id, align 8, !tbaa !6
  %.not4.i = icmp eq i64 %.pr.i, 0
  br i1 %.not4.i, label %.lr.ph.i, label %rbimpl_intern_const.exit

.lr.ph.i:                                         ; preds = %6, %.lr.ph.i
  %7 = tail call i64 @rb_intern2(ptr noundef nonnull @.str.63, i64 noundef 3) #13
  store i64 %7, ptr @parse_iso23_cb.rbimpl_id, align 8, !tbaa !6
  %.not.i = icmp eq i64 %7, 0
  br i1 %.not.i, label %.lr.ph.i, label %rbimpl_intern_const.exit, !llvm.loop !36

rbimpl_intern_const.exit:                         ; preds = %.lr.ph.i, %6
  %.lcssa.i = phi i64 [ %.pr.i, %6 ], [ %7, %.lr.ph.i ]
  %8 = tail call i64 @rb_id2sym(i64 noundef %.lcssa.i) #13
  %9 = tail call i64 @rb_str_to_inum(i64 noundef %3, i32 noundef 10, i32 noundef 0) #13
  %10 = tail call i64 @rb_hash_aset(i64 noundef %1, i64 noundef %8, i64 noundef %9) #13
  br label %11

11:                                               ; preds = %rbimpl_intern_const.exit, %2
  %.pr.i9 = load i64, ptr @parse_iso23_cb.rbimpl_id.73, align 8, !tbaa !6
  %.not4.i10 = icmp eq i64 %.pr.i9, 0
  br i1 %.not4.i10, label %.lr.ph.i12, label %rbimpl_intern_const.exit14

.lr.ph.i12:                                       ; preds = %11, %.lr.ph.i12
  %12 = tail call i64 @rb_intern2(ptr noundef nonnull @.str.65, i64 noundef 4) #13
  store i64 %12, ptr @parse_iso23_cb.rbimpl_id.73, align 8, !tbaa !6
  %.not.i13 = icmp eq i64 %12, 0
  br i1 %.not.i13, label %.lr.ph.i12, label %rbimpl_intern_const.exit14, !llvm.loop !36

rbimpl_intern_const.exit14:                       ; preds = %.lr.ph.i12, %11
  %.lcssa.i11 = phi i64 [ %.pr.i9, %11 ], [ %12, %.lr.ph.i12 ]
  %13 = tail call i64 @rb_id2sym(i64 noundef %.lcssa.i11) #13
  %14 = tail call i64 @rb_str_to_inum(i64 noundef %4, i32 noundef 10, i32 noundef 0) #13
  %15 = tail call i64 @rb_hash_aset(i64 noundef %1, i64 noundef %13, i64 noundef %14) #13
  ret i32 1
}